target datalayout = "e-m:e-p270:32:32-p271:32:32-p272:64:64-i64:64-i128:128-f80:128-n8:16:32:64-S128"
target triple = "x86_64-pc-linux-gnu"

%struct.AVComplexInt32 = type { i32, i32 }
%struct.AVTXContext = type { i32, i32, ptr, ptr, ptr, ptr, [4 x ptr], i32, [4 x ptr], ptr, i32, i64, i32, float, double, ptr }

; Function Attrs: nounwind uwtable
define internal void @ff_tx_rdft_r2i_mod2_int32_c(ptr noundef %0, ptr noundef %1, ptr noundef %2, i64 noundef %3) #4 {
  %5 = alloca ptr, align 8
  %6 = alloca ptr, align 8
  %7 = alloca ptr, align 8
  %8 = alloca i64, align 8
  %9 = alloca i32, align 4
  %10 = alloca i32, align 4
  %11 = alloca i32, align 4
  %12 = alloca i32, align 4
  %13 = alloca ptr, align 8
  %14 = alloca ptr, align 8
  %15 = alloca ptr, align 8
  %16 = alloca ptr, align 8
  %17 = alloca ptr, align 8
  %18 = alloca i32, align 4
  %19 = alloca i32, align 4
  %20 = alloca [4 x i32], align 16
  %21 = alloca %struct.AVComplexInt32, align 4
  %22 = alloca %struct.AVComplexInt32, align 4
  %23 = alloca i32, align 4
  %24 = alloca [4 x i32], align 16
  %25 = alloca %struct.AVComplexInt32, align 4
  %26 = alloca %struct.AVComplexInt32, align 4
  %27 = alloca i32, align 4
  store ptr %0, ptr %5, align 8, !tbaa !17
  store ptr %1, ptr %6, align 8, !tbaa !8
  store ptr %2, ptr %7, align 8, !tbaa !8
  store i64 %3, ptr %8, align 8, !tbaa !30
  call void @llvm.lifetime.start.p0(i64 4, ptr %9) #10
  %28 = load ptr, ptr %5, align 8, !tbaa !17
  %29 = getelementptr inbounds nuw %struct.AVTXContext, ptr %28, i32 0, i32 0
  %30 = load i32, ptr %29, align 8, !tbaa !21
  store i32 %30, ptr %9, align 4, !tbaa !4
  call void @llvm.lifetime.start.p0(i64 4, ptr %10) #10
  %31 = load i32, ptr %9, align 4, !tbaa !4
  %32 = ashr i32 %31, 1
  store i32 %32, ptr %10, align 4, !tbaa !4
  call void @llvm.lifetime.start.p0(i64 4, ptr %11) #10
  %33 = load i32, ptr %9, align 4, !tbaa !4
  %34 = ashr i32 %33, 2
  store i32 %34, ptr %11, align 4, !tbaa !4
  call void @llvm.lifetime.start.p0(i64 4, ptr %12) #10
  %35 = load i32, ptr %9, align 4, !tbaa !4
  %36 = add nsw i32 %35, 4
  %37 = sub nsw i32 %36, 1
  %38 = and i32 %37, -4
  %39 = sdiv i32 %38, 4
  store i32 %39, ptr %12, align 4, !tbaa !4
  call void @llvm.lifetime.start.p0(i64 8, ptr %13) #10
  %40 = load ptr, ptr %5, align 8, !tbaa !17
  %41 = getelementptr inbounds nuw %struct.AVTXContext, ptr %40, i32 0, i32 3
  %42 = load ptr, ptr %41, align 8, !tbaa !31
  store ptr %42, ptr %13, align 8, !tbaa !19
  call void @llvm.lifetime.start.p0(i64 8, ptr %14) #10
  %43 = load ptr, ptr %13, align 8, !tbaa !19
  %44 = getelementptr inbounds i32, ptr %43, i64 8
  store ptr %44, ptr %14, align 8, !tbaa !19
  call void @llvm.lifetime.start.p0(i64 8, ptr %15) #10
  %45 = load ptr, ptr %14, align 8, !tbaa !19
  %46 = load i32, ptr %12, align 4, !tbaa !4
  %47 = sext i32 %46 to i64
  %48 = getelementptr inbounds i32, ptr %45, i64 %47
  store ptr %48, ptr %15, align 8, !tbaa !19
  call void @llvm.lifetime.start.p0(i64 8, ptr %16) #10
  %49 = load ptr, ptr %6, align 8, !tbaa !8
  store ptr %49, ptr %16, align 8, !tbaa !57
  call void @llvm.lifetime.start.p0(i64 8, ptr %17) #10
  %50 = load ptr, ptr %6, align 8, !tbaa !8
  store ptr %50, ptr %17, align 8, !tbaa !19
  call void @llvm.lifetime.start.p0(i64 4, ptr %18) #10
  call void @llvm.lifetime.start.p0(i64 4, ptr %19) #10
  call void @llvm.lifetime.start.p0(i64 16, ptr %20) #10
  call void @llvm.lifetime.start.p0(i64 8, ptr %21) #10
  call void @llvm.lifetime.start.p0(i64 8, ptr %22) #10
  %51 = load ptr, ptr %5, align 8, !tbaa !17
  %52 = getelementptr inbounds nuw %struct.AVTXContext, ptr %51, i32 0, i32 6
  %53 = getelementptr inbounds [4 x ptr], ptr %52, i64 0, i64 0
  %54 = load ptr, ptr %53, align 8, !tbaa !8
  %55 = load ptr, ptr %5, align 8, !tbaa !17
  %56 = getelementptr inbounds nuw %struct.AVTXContext, ptr %55, i32 0, i32 5
  %57 = load ptr, ptr %56, align 8, !tbaa !65
  %58 = getelementptr inbounds %struct.AVTXContext, ptr %57, i64 0
  %59 = load ptr, ptr %6, align 8, !tbaa !8
  %60 = load ptr, ptr %7, align 8, !tbaa !8
  call void %54(ptr noundef %58, ptr noundef %59, ptr noundef %60, i64 noundef 8)
  %61 = load ptr, ptr %16, align 8, !tbaa !57
  %62 = getelementptr inbounds %struct.AVComplexInt32, ptr %61, i64 0
  %63 = getelementptr inbounds nuw %struct.AVComplexInt32, ptr %62, i32 0, i32 0
  %64 = load i32, ptr %63, align 4, !tbaa !32
  store i32 %64, ptr %18, align 4, !tbaa !4
  %65 = load i32, ptr %18, align 4, !tbaa !4
  %66 = load ptr, ptr %16, align 8, !tbaa !57
  %67 = getelementptr inbounds %struct.AVComplexInt32, ptr %66, i64 0
  %68 = getelementptr inbounds nuw %struct.AVComplexInt32, ptr %67, i32 0, i32 1
  %69 = load i32, ptr %68, align 4, !tbaa !34
  %70 = add nsw i32 %65, %69
  %71 = load ptr, ptr %16, align 8, !tbaa !57
  %72 = getelementptr inbounds %struct.AVComplexInt32, ptr %71, i64 0
  %73 = getelementptr inbounds nuw %struct.AVComplexInt32, ptr %72, i32 0, i32 0
  store i32 %70, ptr %73, align 4, !tbaa !32
  %74 = load i32, ptr %18, align 4, !tbaa !4
  %75 = load ptr, ptr %16, align 8, !tbaa !57
  %76 = getelementptr inbounds %struct.AVComplexInt32, ptr %75, i64 0
  %77 = getelementptr inbounds nuw %struct.AVComplexInt32, ptr %76, i32 0, i32 1
  %78 = load i32, ptr %77, align 4, !tbaa !34
  %79 = sub nsw i32 %74, %78
  store i32 %79, ptr %18, align 4, !tbaa !4
  %80 = load ptr, ptr %13, align 8, !tbaa !19
  %81 = getelementptr inbounds i32, ptr %80, i64 0
  %82 = load i32, ptr %81, align 4, !tbaa !4
  %83 = sext i32 %82 to i64
  %84 = load ptr, ptr %16, align 8, !tbaa !57
  %85 = getelementptr inbounds %struct.AVComplexInt32, ptr %84, i64 0
  %86 = getelementptr inbounds nuw %struct.AVComplexInt32, ptr %85, i32 0, i32 0
  %87 = load i32, ptr %86, align 4, !tbaa !32
  %88 = sext i32 %87 to i64
  %89 = mul nsw i64 %83, %88
  %90 = add nsw i64 %89, 1073741824
  %91 = ashr i64 %90, 31
  %92 = trunc i64 %91 to i32
  %93 = load ptr, ptr %16, align 8, !tbaa !57
  %94 = getelementptr inbounds %struct.AVComplexInt32, ptr %93, i64 0
  %95 = getelementptr inbounds nuw %struct.AVComplexInt32, ptr %94, i32 0, i32 0
  store i32 %92, ptr %95, align 4, !tbaa !32
  %96 = load ptr, ptr %13, align 8, !tbaa !19
  %97 = getelementptr inbounds i32, ptr %96, i64 1
  %98 = load i32, ptr %97, align 4, !tbaa !4
  %99 = sext i32 %98 to i64
  %100 = load i32, ptr %18, align 4, !tbaa !4
  %101 = sext i32 %100 to i64
  %102 = mul nsw i64 %99, %101
  %103 = add nsw i64 %102, 1073741824
  %104 = ashr i64 %103, 31
  %105 = trunc i64 %104 to i32
  store i32 %105, ptr %18, align 4, !tbaa !4
  %106 = load ptr, ptr %13, align 8, !tbaa !19
  %107 = getelementptr inbounds i32, ptr %106, i64 2
  %108 = load i32, ptr %107, align 4, !tbaa !4
  %109 = sext i32 %108 to i64
  %110 = load ptr, ptr %16, align 8, !tbaa !57
  %111 = load i32, ptr %11, align 4, !tbaa !4
  %112 = sext i32 %111 to i64
  %113 = getelementptr inbounds %struct.AVComplexInt32, ptr %110, i64 %112
  %114 = getelementptr inbounds nuw %struct.AVComplexInt32, ptr %113, i32 0, i32 0
  %115 = load i32, ptr %114, align 4, !tbaa !32
  %116 = sext i32 %115 to i64
  %117 = mul nsw i64 %109, %116
  %118 = add nsw i64 %117, 1073741824
  %119 = ashr i64 %118, 31
  %120 = trunc i64 %119 to i32
  %121 = load ptr, ptr %16, align 8, !tbaa !57
  %122 = load i32, ptr %11, align 4, !tbaa !4
  %123 = sext i32 %122 to i64
  %124 = getelementptr inbounds %struct.AVComplexInt32, ptr %121, i64 %123
  %125 = getelementptr inbounds nuw %struct.AVComplexInt32, ptr %124, i32 0, i32 0
  store i32 %120, ptr %125, align 4, !tbaa !32
  %126 = load ptr, ptr %16, align 8, !tbaa !57
  %127 = load i32, ptr %11, align 4, !tbaa !4
  %128 = sext i32 %127 to i64
  %129 = getelementptr inbounds %struct.AVComplexInt32, ptr %126, i64 %128
  call void @llvm.memcpy.p0.p0.i64(ptr align 4 %21, ptr align 4 %129, i64 8, i1 false), !tbaa.struct !35
  %130 = load ptr, ptr %16, align 8, !tbaa !57
  %131 = load i32, ptr %11, align 4, !tbaa !4
  %132 = add nsw i32 %131, 1
  %133 = sext i32 %132 to i64
  %134 = getelementptr inbounds %struct.AVComplexInt32, ptr %130, i64 %133
  call void @llvm.memcpy.p0.p0.i64(ptr align 4 %22, ptr align 4 %134, i64 8, i1 false), !tbaa.struct !35
  %135 = load ptr, ptr %13, align 8, !tbaa !19
  %136 = getelementptr inbounds i32, ptr %135, i64 5
  %137 = load i32, ptr %136, align 4, !tbaa !4
  %138 = sext i32 %137 to i64
  %139 = getelementptr inbounds nuw %struct.AVComplexInt32, ptr %21, i32 0, i32 1
  %140 = load i32, ptr %139, align 4, !tbaa !34
  %141 = getelementptr inbounds nuw %struct.AVComplexInt32, ptr %22, i32 0, i32 1
  %142 = load i32, ptr %141, align 4, !tbaa !34
  %143 = sub nsw i32 %140, %142
  %144 = sext i32 %143 to i64
  %145 = mul nsw i64 %138, %144
  %146 = add nsw i64 %145, 1073741824
  %147 = ashr i64 %146, 31
  %148 = trunc i64 %147 to i32
  %149 = getelementptr inbounds [4 x i32], ptr %20, i64 0, i64 0
  store i32 %148, ptr %149, align 16, !tbaa !4
  %150 = load ptr, ptr %13, align 8, !tbaa !19
  %151 = getelementptr inbounds i32, ptr %150, i64 6
  %152 = load i32, ptr %151, align 4, !tbaa !4
  %153 = sext i32 %152 to i64
  %154 = getelementptr inbounds nuw %struct.AVComplexInt32, ptr %21, i32 0, i32 1
  %155 = load i32, ptr %154, align 4, !tbaa !34
  %156 = getelementptr inbounds nuw %struct.AVComplexInt32, ptr %22, i32 0, i32 1
  %157 = load i32, ptr %156, align 4, !tbaa !34
  %158 = add nsw i32 %155, %157
  %159 = sext i32 %158 to i64
  %160 = mul nsw i64 %153, %159
  %161 = add nsw i64 %160, 1073741824
  %162 = ashr i64 %161, 31
  %163 = trunc i64 %162 to i32
  %164 = getelementptr inbounds [4 x i32], ptr %20, i64 0, i64 1
  store i32 %163, ptr %164, align 4, !tbaa !4
  %165 = load ptr, ptr %13, align 8, !tbaa !19
  %166 = getelementptr inbounds i32, ptr %165, i64 7
  %167 = load i32, ptr %166, align 4, !tbaa !4
  %168 = sext i32 %167 to i64
  %169 = getelementptr inbounds nuw %struct.AVComplexInt32, ptr %21, i32 0, i32 0
  %170 = load i32, ptr %169, align 4, !tbaa !32
  %171 = getelementptr inbounds nuw %struct.AVComplexInt32, ptr %22, i32 0, i32 0
  %172 = load i32, ptr %171, align 4, !tbaa !32
  %173 = sub nsw i32 %170, %172
  %174 = sext i32 %173 to i64
  %175 = mul nsw i64 %168, %174
  %176 = add nsw i64 %175, 1073741824
  %177 = ashr i64 %176, 31
  %178 = trunc i64 %177 to i32
  %179 = getelementptr inbounds [4 x i32], ptr %20, i64 0, i64 2
  store i32 %178, ptr %179, align 8, !tbaa !4
  %180 = getelementptr inbounds [4 x i32], ptr %20, i64 0, i64 1
  %181 = load i32, ptr %180, align 4, !tbaa !4
  %182 = load ptr, ptr %15, align 8, !tbaa !19
  %183 = load i32, ptr %11, align 4, !tbaa !4
  %184 = sext i32 %183 to i64
  %185 = getelementptr inbounds i32, ptr %182, i64 %184
  %186 = load i32, ptr %185, align 4, !tbaa !4
  %187 = mul nsw i32 %181, %186
  %188 = getelementptr inbounds [4 x i32], ptr %20, i64 0, i64 2
  %189 = load i32, ptr %188, align 8, !tbaa !4
  %190 = load ptr, ptr %14, align 8, !tbaa !19
  %191 = load i32, ptr %11, align 4, !tbaa !4
  %192 = sext i32 %191 to i64
  %193 = getelementptr inbounds i32, ptr %190, i64 %192
  %194 = load i32, ptr %193, align 4, !tbaa !4
  %195 = mul nsw i32 %189, %194
  %196 = add nsw i32 %187, %195
  %197 = getelementptr inbounds [4 x i32], ptr %20, i64 0, i64 3
  store i32 %196, ptr %197, align 4, !tbaa !4
  %198 = getelementptr inbounds [4 x i32], ptr %20, i64 0, i64 0
  %199 = load i32, ptr %198, align 16, !tbaa !4
  %200 = getelementptr inbounds [4 x i32], ptr %20, i64 0, i64 3
  %201 = load i32, ptr %200, align 4, !tbaa !4
  %202 = add nsw i32 %199, %201
  store i32 %202, ptr %19, align 4, !tbaa !4
  call void @llvm.lifetime.start.p0(i64 4, ptr %23) #10
  store i32 1, ptr %23, align 4, !tbaa !4
  br label %203

203:                                              ; preds = %304, %4
  %204 = load i32, ptr %23, align 4, !tbaa !4
  %205 = load i32, ptr %11, align 4, !tbaa !4
  %206 = icmp sle i32 %204, %205
  br i1 %206, label %208, label %207

207:                                              ; preds = %203
  call void @llvm.lifetime.end.p0(i64 4, ptr %23) #10
  br label %307

208:                                              ; preds = %203
  call void @llvm.lifetime.start.p0(i64 16, ptr %24) #10
  call void @llvm.lifetime.start.p0(i64 8, ptr %25) #10
  %209 = load ptr, ptr %16, align 8, !tbaa !57
  %210 = load i32, ptr %23, align 4, !tbaa !4
  %211 = sext i32 %210 to i64
  %212 = getelementptr inbounds %struct.AVComplexInt32, ptr %209, i64 %211
  call void @llvm.memcpy.p0.p0.i64(ptr align 4 %25, ptr align 4 %212, i64 8, i1 false), !tbaa.struct !35
  call void @llvm.lifetime.start.p0(i64 8, ptr %26) #10
  %213 = load ptr, ptr %16, align 8, !tbaa !57
  %214 = load i32, ptr %10, align 4, !tbaa !4
  %215 = load i32, ptr %23, align 4, !tbaa !4
  %216 = sub nsw i32 %214, %215
  %217 = sext i32 %216 to i64
  %218 = getelementptr inbounds %struct.AVComplexInt32, ptr %213, i64 %217
  call void @llvm.memcpy.p0.p0.i64(ptr align 4 %26, ptr align 4 %218, i64 8, i1 false), !tbaa.struct !35
  %219 = load ptr, ptr %13, align 8, !tbaa !19
  %220 = getelementptr inbounds i32, ptr %219, i64 5
  %221 = load i32, ptr %220, align 4, !tbaa !4
  %222 = sext i32 %221 to i64
  %223 = getelementptr inbounds nuw %struct.AVComplexInt32, ptr %25, i32 0, i32 1
  %224 = load i32, ptr %223, align 4, !tbaa !34
  %225 = getelementptr inbounds nuw %struct.AVComplexInt32, ptr %26, i32 0, i32 1
  %226 = load i32, ptr %225, align 4, !tbaa !34
  %227 = sub nsw i32 %224, %226
  %228 = sext i32 %227 to i64
  %229 = mul nsw i64 %222, %228
  %230 = add nsw i64 %229, 1073741824
  %231 = ashr i64 %230, 31
  %232 = trunc i64 %231 to i32
  %233 = getelementptr inbounds [4 x i32], ptr %24, i64 0, i64 0
  store i32 %232, ptr %233, align 16, !tbaa !4
  %234 = load ptr, ptr %13, align 8, !tbaa !19
  %235 = getelementptr inbounds i32, ptr %234, i64 6
  %236 = load i32, ptr %235, align 4, !tbaa !4
  %237 = sext i32 %236 to i64
  %238 = getelementptr inbounds nuw %struct.AVComplexInt32, ptr %25, i32 0, i32 1
  %239 = load i32, ptr %238, align 4, !tbaa !34
  %240 = getelementptr inbounds nuw %struct.AVComplexInt32, ptr %26, i32 0, i32 1
  %241 = load i32, ptr %240, align 4, !tbaa !34
  %242 = add nsw i32 %239, %241
  %243 = sext i32 %242 to i64
  %244 = mul nsw i64 %237, %243
  %245 = add nsw i64 %244, 1073741824
  %246 = ashr i64 %245, 31
  %247 = trunc i64 %246 to i32
  %248 = getelementptr inbounds [4 x i32], ptr %24, i64 0, i64 1
  store i32 %247, ptr %248, align 4, !tbaa !4
  %249 = load ptr, ptr %13, align 8, !tbaa !19
  %250 = getelementptr inbounds i32, ptr %249, i64 7
  %251 = load i32, ptr %250, align 4, !tbaa !4
  %252 = sext i32 %251 to i64
  %253 = getelementptr inbounds nuw %struct.AVComplexInt32, ptr %25, i32 0, i32 0
  %254 = load i32, ptr %253, align 4, !tbaa !32
  %255 = getelementptr inbounds nuw %struct.AVComplexInt32, ptr %26, i32 0, i32 0
  %256 = load i32, ptr %255, align 4, !tbaa !32
  %257 = sub nsw i32 %254, %256
  %258 = sext i32 %257 to i64
  %259 = mul nsw i64 %252, %258
  %260 = add nsw i64 %259, 1073741824
  %261 = ashr i64 %260, 31
  %262 = trunc i64 %261 to i32
  %263 = getelementptr inbounds [4 x i32], ptr %24, i64 0, i64 2
  store i32 %262, ptr %263, align 8, !tbaa !4
  %264 = getelementptr inbounds [4 x i32], ptr %24, i64 0, i64 1
  %265 = load i32, ptr %264, align 4, !tbaa !4
  %266 = load ptr, ptr %15, align 8, !tbaa !19
  %267 = load i32, ptr %23, align 4, !tbaa !4
  %268 = sext i32 %267 to i64
  %269 = getelementptr inbounds i32, ptr %266, i64 %268
  %270 = load i32, ptr %269, align 4, !tbaa !4
  %271 = mul nsw i32 %265, %270
  %272 = getelementptr inbounds [4 x i32], ptr %24, i64 0, i64 2
  %273 = load i32, ptr %272, align 8, !tbaa !4
  %274 = load ptr, ptr %14, align 8, !tbaa !19
  %275 = load i32, ptr %23, align 4, !tbaa !4
  %276 = sext i32 %275 to i64
  %277 = getelementptr inbounds i32, ptr %274, i64 %276
  %278 = load i32, ptr %277, align 4, !tbaa !4
  %279 = mul nsw i32 %273, %278
  %280 = add nsw i32 %271, %279
  %281 = getelementptr inbounds [4 x i32], ptr %24, i64 0, i64 3
  store i32 %280, ptr %281, align 4, !tbaa !4
  %282 = getelementptr inbounds [4 x i32], ptr %24, i64 0, i64 3
  %283 = load i32, ptr %282, align 4, !tbaa !4
  %284 = getelementptr inbounds [4 x i32], ptr %24, i64 0, i64 0
  %285 = load i32, ptr %284, align 16, !tbaa !4
  %286 = sub nsw i32 %283, %285
  %287 = load ptr, ptr %17, align 8, !tbaa !19
  %288 = load i32, ptr %23, align 4, !tbaa !4
  %289 = sub nsw i32 %288, 1
  %290 = sext i32 %289 to i64
  %291 = getelementptr inbounds i32, ptr %287, i64 %290
  store i32 %286, ptr %291, align 4, !tbaa !4
  %292 = getelementptr inbounds [4 x i32], ptr %24, i64 0, i64 0
  %293 = load i32, ptr %292, align 16, !tbaa !4
  %294 = getelementptr inbounds [4 x i32], ptr %24, i64 0, i64 3
  %295 = load i32, ptr %294, align 4, !tbaa !4
  %296 = add nsw i32 %293, %295
  %297 = load ptr, ptr %17, align 8, !tbaa !19
  %298 = load i32, ptr %9, align 4, !tbaa !4
  %299 = load i32, ptr %23, align 4, !tbaa !4
  %300 = sub nsw i32 %298, %299
  %301 = sub nsw i32 %300, 1
  %302 = sext i32 %301 to i64
  %303 = getelementptr inbounds i32, ptr %297, i64 %302
  store i32 %296, ptr %303, align 4, !tbaa !4
  call void @llvm.lifetime.end.p0(i64 8, ptr %26) #10
  call void @llvm.lifetime.end.p0(i64 8, ptr %25) #10
  call void @llvm.lifetime.end.p0(i64 16, ptr %24) #10
  br label %304

304:                                              ; preds = %208
  %305 = load i32, ptr %23, align 4, !tbaa !4
  %306 = add nsw i32 %305, 1
  store i32 %306, ptr %23, align 4, !tbaa !4
  br label %203, !llvm.loop !155

307:                                              ; preds = %207
  call void @llvm.lifetime.start.p0(i64 4, ptr %27) #10
  store i32 1, ptr %27, align 4, !tbaa !4
  br label %308

308:                                              ; preds = %328, %307
  %309 = load i32, ptr %27, align 4, !tbaa !4
  %310 = load i32, ptr %11, align 4, !tbaa !4
  %311 = add nsw i32 %310, 1
  %312 = icmp slt i32 %309, %311
  br i1 %312, label %314, label %313

313:                                              ; preds = %308
  call void @llvm.lifetime.end.p0(i64 4, ptr %27) #10
  br label %331

314:                                              ; preds = %308
  %315 = load ptr, ptr %17, align 8, !tbaa !19
  %316 = load i32, ptr %9, align 4, !tbaa !4
  %317 = load i32, ptr %27, align 4, !tbaa !4
  %318 = sub nsw i32 %316, %317
  %319 = sext i32 %318 to i64
  %320 = getelementptr inbounds i32, ptr %315, i64 %319
  %321 = load i32, ptr %320, align 4, !tbaa !4
  %322 = load ptr, ptr %17, align 8, !tbaa !19
  %323 = load i32, ptr %10, align 4, !tbaa !4
  %324 = load i32, ptr %27, align 4, !tbaa !4
  %325 = sub nsw i32 %323, %324
  %326 = sext i32 %325 to i64
  %327 = getelementptr inbounds i32, ptr %322, i64 %326
  store i32 %321, ptr %327, align 4, !tbaa !4
  br label %328

328:                                              ; preds = %314
  %329 = load i32, ptr %27, align 4, !tbaa !4
  %330 = add nsw i32 %329, 1
  store i32 %330, ptr %27, align 4, !tbaa !4
  br label %308, !llvm.loop !156

331:                                              ; preds = %313
  %332 = load i32, ptr %19, align 4, !tbaa !4
  %333 = load ptr, ptr %17, align 8, !tbaa !19
  %334 = load i32, ptr %11, align 4, !tbaa !4
  %335 = sext i32 %334 to i64
  %336 = getelementptr inbounds i32, ptr %333, i64 %335
  store i32 %332, ptr %336, align 4, !tbaa !4
  call void @llvm.lifetime.end.p0(i64 8, ptr %22) #10
  call void @llvm.lifetime.end.p0(i64 8, ptr %21) #10
  call void @llvm.lifetime.end.p0(i64 16, ptr %20) #10
  call void @llvm.lifetime.end.p0(i64 4, ptr %19) #10
  call void @llvm.lifetime.end.p0(i64 4, ptr %18) #10
  call void @llvm.lifetime.end.p0(i64 8, ptr %17) #10
  call void @llvm.lifetime.end.p0(i64 8, ptr %16) #10
  call void @llvm.lifetime.end.p0(i64 8, ptr %15) #10
  call void @llvm.lifetime.end.p0(i64 8, ptr %14) #10
  call void @llvm.lifetime.end.p0(i64 8, ptr %13) #10
  call void @llvm.lifetime.end.p0(i64 4, ptr %12) #10
  call void @llvm.lifetime.end.p0(i64 4, ptr %11) #10
  call void @llvm.lifetime.end.p0(i64 4, ptr %10) #10
  call void @llvm.lifetime.end.p0(i64 4, ptr %9) #10
  ret void
}