; Function Attrs: nounwind uwtable
define internal void @ff_tx_rdft_r2i_mod2_int32_c(ptr noundef readonly captures(none) %0, ptr noundef %1, ptr noundef %2, i64 %3) #3 {
  %5 = load i32, ptr %0, align 8, !tbaa !16
  %6 = ashr i32 %5, 1
  %7 = ashr i32 %5, 2
  %8 = add nsw i32 %5, 3
  %9 = ashr i32 %8, 2
  %10 = getelementptr inbounds nuw i8, ptr %0, i64 16
  %11 = load ptr, ptr %10, align 8, !tbaa !26
  %12 = getelementptr inbounds nuw i8, ptr %11, i64 32
  %13 = sext i32 %9 to i64
  %14 = getelementptr inbounds i32, ptr %12, i64 %13
  %15 = getelementptr inbounds nuw i8, ptr %0, i64 40
  %16 = load ptr, ptr %15, align 8, !tbaa !4
  %17 = getelementptr inbounds nuw i8, ptr %0, i64 32
  %18 = load ptr, ptr %17, align 8, !tbaa !55
  tail call void %16(ptr noundef %18, ptr noundef %1, ptr noundef %2, i64 noundef 8) #16
  %19 = load i32, ptr %1, align 4, !tbaa !48
  %20 = getelementptr inbounds nuw i8, ptr %1, i64 4
  %21 = load i32, ptr %20, align 4, !tbaa !50
  %22 = add nsw i32 %21, %19
  store i32 %22, ptr %1, align 4, !tbaa !48
  %23 = load i32, ptr %11, align 4, !tbaa !10
  %24 = sext i32 %23 to i64
  %25 = sext i32 %22 to i64
  %26 = mul nsw i64 %24, %25
  %27 = add nsw i64 %26, 1073741824
  %28 = lshr i64 %27, 31
  %29 = trunc i64 %28 to i32
  store i32 %29, ptr %1, align 4, !tbaa !48
  %30 = getelementptr inbounds nuw i8, ptr %11, i64 8
  %31 = load i32, ptr %30, align 4, !tbaa !10
  %32 = sext i32 %31 to i64
  %33 = sext i32 %7 to i64
  %34 = getelementptr %struct.AVComplexInt32, ptr %1, i64 %33
  %35 = load i32, ptr %34, align 4, !tbaa !48
  %36 = sext i32 %35 to i64
  %37 = mul nsw i64 %36, %32
  %38 = add nsw i64 %37, 1073741824
  %39 = lshr i64 %38, 31
  %40 = trunc i64 %39 to i32
  store i32 %40, ptr %34, align 4, !tbaa !48
  %.sroa.423.0..sroa_idx = getelementptr inbounds nuw i8, ptr %34, i64 4
  %.sroa.423.0.copyload = load i32, ptr %.sroa.423.0..sroa_idx, align 4, !tbaa !10
  %41 = getelementptr i8, ptr %34, i64 8
  %.sroa.019.0.copyload = load i32, ptr %41, align 4, !tbaa !10
  %.sroa.420.0..sroa_idx = getelementptr i8, ptr %34, i64 12
  %.sroa.420.0.copyload = load i32, ptr %.sroa.420.0..sroa_idx, align 4, !tbaa !10
  %42 = getelementptr inbounds nuw i8, ptr %11, i64 20
  %43 = load i32, ptr %42, align 4, !tbaa !10
  %44 = getelementptr inbounds nuw i8, ptr %11, i64 24
  %45 = load i32, ptr %44, align 4, !tbaa !10
  %46 = getelementptr inbounds nuw i8, ptr %11, i64 28
  %47 = load i32, ptr %46, align 4, !tbaa !10
  %48 = getelementptr inbounds i32, ptr %14, i64 %33
  %49 = load i32, ptr %48, align 4, !tbaa !10
  %50 = getelementptr inbounds i32, ptr %12, i64 %33
  %51 = load i32, ptr %50, align 4, !tbaa !10
  %invariant.gep = getelementptr i8, ptr %1, i64 -4
  %.not89 = icmp slt i32 %7, 1
  br i1 %.not89, label %._crit_edge, label %.lr.ph.preheader

.lr.ph.preheader:                                 ; preds = %4
  %52 = sext i32 %6 to i64
  %53 = add nuw nsw i32 %7, 1
  %wide.trip.count = zext nneg i32 %53 to i64
  br label %.lr.ph

.lr.ph93.preheader:                               ; preds = %.lr.ph
  %54 = zext nneg i32 %5 to i64
  %55 = sext i32 %6 to i64
  %56 = add nuw nsw i32 %7, 1
  %wide.trip.count99 = zext nneg i32 %56 to i64
  br label %.lr.ph93

.lr.ph:                                           ; preds = %.lr.ph.preheader, %.lr.ph
  %indvars.iv = phi i64 [ 1, %.lr.ph.preheader ], [ %indvars.iv.next, %.lr.ph ]
  %57 = getelementptr inbounds nuw %struct.AVComplexInt32, ptr %1, i64 %indvars.iv
  %.sroa.05.0.copyload = load i32, ptr %57, align 4, !tbaa !10
  %.sroa.46.0..sroa_idx = getelementptr inbounds nuw i8, ptr %57, i64 4
  %.sroa.46.0.copyload = load i32, ptr %.sroa.46.0..sroa_idx, align 4, !tbaa !10
  %58 = sub nsw i64 %52, %indvars.iv
  %59 = getelementptr inbounds %struct.AVComplexInt32, ptr %1, i64 %58
  %.sroa.0.0.copyload = load i32, ptr %59, align 4, !tbaa !10
  %.sroa.4.0..sroa_idx = getelementptr inbounds nuw i8, ptr %59, i64 4
  %.sroa.4.0.copyload = load i32, ptr %.sroa.4.0..sroa_idx, align 4, !tbaa !10
  %60 = load i32, ptr %42, align 4, !tbaa !10
  %61 = sext i32 %60 to i64
  %62 = sub nsw i32 %.sroa.46.0.copyload, %.sroa.4.0.copyload
  %63 = sext i32 %62 to i64
  %64 = mul nsw i64 %61, %63
  %65 = add nsw i64 %64, 1073741824
  %66 = lshr i64 %65, 31
  %67 = trunc i64 %66 to i32
  %68 = load i32, ptr %44, align 4, !tbaa !10
  %69 = sext i32 %68 to i64
  %70 = add nsw i32 %.sroa.4.0.copyload, %.sroa.46.0.copyload
  %71 = sext i32 %70 to i64
  %72 = mul nsw i64 %69, %71
  %73 = add nsw i64 %72, 1073741824
  %74 = lshr i64 %73, 31
  %75 = trunc i64 %74 to i32
  %76 = load i32, ptr %46, align 4, !tbaa !10
  %77 = sext i32 %76 to i64
  %78 = sub nsw i32 %.sroa.05.0.copyload, %.sroa.0.0.copyload
  %79 = sext i32 %78 to i64
  %80 = mul nsw i64 %77, %79
  %81 = add nsw i64 %80, 1073741824
  %82 = lshr i64 %81, 31
  %83 = trunc i64 %82 to i32
  %84 = getelementptr inbounds nuw i32, ptr %14, i64 %indvars.iv
  %85 = load i32, ptr %84, align 4, !tbaa !10
  %86 = mul nsw i32 %85, %75
  %87 = getelementptr inbounds nuw i32, ptr %12, i64 %indvars.iv
  %88 = load i32, ptr %87, align 4, !tbaa !10
  %89 = mul nsw i32 %88, %83
  %90 = add nsw i32 %89, %86
  %91 = sub nsw i32 %90, %67
  %gep = getelementptr i32, ptr %invariant.gep, i64 %indvars.iv
  store i32 %91, ptr %gep, align 4, !tbaa !10
  %92 = add nsw i32 %90, %67
  %93 = trunc i64 %indvars.iv to i32
  %94 = xor i32 %93, -1
  %95 = add i32 %5, %94
  %96 = sext i32 %95 to i64
  %97 = getelementptr inbounds i32, ptr %1, i64 %96
  store i32 %92, ptr %97, align 4, !tbaa !10
  %indvars.iv.next = add nuw nsw i64 %indvars.iv, 1
  %exitcond.not = icmp eq i64 %indvars.iv.next, %wide.trip.count
  br i1 %exitcond.not, label %.lr.ph93.preheader, label %.lr.ph, !llvm.loop !146

._crit_edge:                                      ; preds = %.lr.ph93, %4
  %98 = sext i32 %43 to i64
  %99 = sub nsw i32 %.sroa.423.0.copyload, %.sroa.420.0.copyload
  %100 = sext i32 %99 to i64
  %101 = mul nsw i64 %98, %100
  %102 = add nsw i64 %101, 1073741824
  %103 = lshr i64 %102, 31
  %104 = trunc i64 %103 to i32
  %105 = sext i32 %45 to i64
  %106 = add nsw i32 %.sroa.420.0.copyload, %.sroa.423.0.copyload
  %107 = sext i32 %106 to i64
  %108 = mul nsw i64 %105, %107
  %109 = add nsw i64 %108, 1073741824
  %110 = lshr i64 %109, 31
  %111 = trunc i64 %110 to i32
  %112 = mul nsw i32 %49, %111
  %113 = sext i32 %47 to i64
  %114 = sub nsw i32 %40, %.sroa.019.0.copyload
  %115 = sext i32 %114 to i64
  %116 = mul nsw i64 %113, %115
  %117 = add nsw i64 %116, 1073741824
  %118 = lshr i64 %117, 31
  %119 = trunc i64 %118 to i32
  %120 = mul nsw i32 %51, %119
  %121 = add i32 %112, %104
  %122 = add i32 %121, %120
  %123 = getelementptr inbounds i32, ptr %1, i64 %33
  store i32 %122, ptr %123, align 4, !tbaa !10
  ret void

.lr.ph93:                                         ; preds = %.lr.ph93.preheader, %.lr.ph93
  %indvars.iv96 = phi i64 [ 1, %.lr.ph93.preheader ], [ %indvars.iv.next97, %.lr.ph93 ]
  %124 = sub nsw i64 %54, %indvars.iv96
  %125 = getelementptr inbounds i32, ptr %1, i64 %124
  %126 = load i32, ptr %125, align 4, !tbaa !10
  %127 = sub nsw i64 %55, %indvars.iv96
  %128 = getelementptr inbounds i32, ptr %1, i64 %127
  store i32 %126, ptr %128, align 4, !tbaa !10
  %indvars.iv.next97 = add nuw nsw i64 %indvars.iv96, 1
  %exitcond100.not = icmp eq i64 %indvars.iv.next97, %wide.trip.count99
  br i1 %exitcond100.not, label %._crit_edge, label %.lr.ph93, !llvm.loop !147
}